target datalayout = "e-m:e-p270:32:32-p271:32:32-p272:64:64-i64:64-i128:128-f80:128-n8:16:32:64-S128"
target triple = "x86_64-pc-linux-gnu"

%struct.tMPI_Thread = type { i64, i32 }

; Function Attrs: mustprogress nounwind uwtable
define internal void @_ZL22tMPI_Destroy_thread_idPv(ptr noundef %0) #0 {
  %2 = alloca ptr, align 8
  %3 = alloca ptr, align 8
  store ptr %0, ptr %2, align 8
  %4 = load ptr, ptr %2, align 8
  store ptr %4, ptr %3, align 8
  %5 = load ptr, ptr %3, align 8
  %6 = getelementptr inbounds %struct.tMPI_Thread, ptr %5, i32 0, i32 1
  %7 = load i32, ptr %6, align 8
  %8 = icmp ne i32 %7, 0
  br i1 %8, label %11, label %9

9:                                                ; preds = %1
  %10 = load ptr, ptr %2, align 8
  call void @free(ptr noundef %10) #8
  br label %11

11:                                               ; preds = %9, %1
  ret void
}