; Function Attrs: mustprogress nounwind willreturn memory(argmem: readwrite, inaccessiblemem: readwrite) uwtable
define internal void @_ZL22tMPI_Destroy_thread_idPv(ptr nocapture noundef %0) #12 {
  %2 = getelementptr inbounds i8, ptr %0, i64 8
  %3 = load i32, ptr %2, align 8
  %.not = icmp eq i32 %3, 0
  br i1 %.not, label %4, label %5

4:                                                ; preds = %1
  tail call void @free(ptr noundef nonnull %0) #13
  br label %5

5:                                                ; preds = %4, %1
  ret void
}